target datalayout = "e-m:e-p270:32:32-p271:32:32-p272:64:64-i64:64-i128:128-f80:128-n8:16:32:64-S128"
target triple = "x86_64-pc-linux-gnu"

@hf_zbee_gp_src_id = internal global i32 0, align 4
@hf_zbee_gp_ieee = internal global i32 0, align 4
@hf_zbee_gp_endpoint = internal global i32 0, align 4
@hf_zbee_zcl_proxy_sink_tbl_req_options = internal global i32 0, align 4
@hf_zbee_zcl_proxy_sink_tbl_req_index = internal global i32 0, align 4
@ett_zbee_zcl_proxy_sink_tbl_req_options = internal global i32 0, align 4
@dissect_zcl_gp_proxy_sink_table_request.n_options = internal constant [3 x ptr] [ptr @hf_zbee_zcl_proxy_sink_tbl_req_fld_app_id, ptr @hf_zbee_zcl_proxy_sink_tbl_req_fld_req_type, ptr null], align 16

; Function Attrs: null_pointer_is_valid sspstrong uwtable
define internal void @dissect_zcl_gp_proxy_sink_table_request(ptr noundef %0, ptr noundef %1, ptr noundef %2) #0 {
  %4 = alloca ptr, align 8
  %5 = alloca ptr, align 8
  %6 = alloca ptr, align 8
  %7 = alloca i8, align 1
  %8 = alloca i8, align 1
  %9 = alloca i8, align 1
  store ptr %0, ptr %4, align 8
  store ptr %1, ptr %5, align 8
  store ptr %2, ptr %6, align 8
  call void @llvm.lifetime.start.p0(i64 1, ptr %7) #7
  %10 = load ptr, ptr %5, align 8
  %11 = load ptr, ptr %6, align 8
  %12 = load i32, ptr %11, align 4
  %13 = call zeroext i8 @tvb_get_uint8(ptr noundef %10, i32 noundef %12)
  store i8 %13, ptr %7, align 1
  call void @llvm.lifetime.start.p0(i64 1, ptr %8) #7
  call void @llvm.lifetime.start.p0(i64 1, ptr %9) #7
  %14 = load ptr, ptr %4, align 8
  %15 = load ptr, ptr %5, align 8
  %16 = load ptr, ptr %6, align 8
  %17 = load i32, ptr %16, align 4
  %18 = load i32, ptr @hf_zbee_zcl_proxy_sink_tbl_req_options, align 4
  %19 = load i32, ptr @ett_zbee_zcl_proxy_sink_tbl_req_options, align 4
  %20 = call ptr @proto_tree_add_bitmask(ptr noundef %14, ptr noundef %15, i32 noundef %17, i32 noundef %18, i32 noundef %19, ptr noundef @dissect_zcl_gp_proxy_sink_table_request.n_options, i32 noundef 0)
  %21 = load ptr, ptr %6, align 8
  %22 = load i32, ptr %21, align 4
  %23 = add i32 %22, 1
  store i32 %23, ptr %21, align 4
  %24 = load i8, ptr %7, align 1
  %25 = zext i8 %24 to i32
  %26 = and i32 %25, 7
  %27 = trunc i32 %26 to i8
  store i8 %27, ptr %8, align 1
  %28 = load i8, ptr %7, align 1
  %29 = zext i8 %28 to i32
  %30 = and i32 %29, 24
  %31 = ashr i32 %30, 3
  %32 = trunc i32 %31 to i8
  store i8 %32, ptr %9, align 1
  %33 = load i8, ptr %9, align 1
  %34 = zext i8 %33 to i32
  %35 = icmp eq i32 %34, 0
  br i1 %35, label %36, label %75

36:                                               ; preds = %3
  %37 = load i8, ptr %8, align 1
  %38 = zext i8 %37 to i32
  %39 = icmp eq i32 %38, 0
  br i1 %39, label %40, label %50

40:                                               ; preds = %36
  %41 = load ptr, ptr %4, align 8
  %42 = load i32, ptr @hf_zbee_gp_src_id, align 4
  %43 = load ptr, ptr %5, align 8
  %44 = load ptr, ptr %6, align 8
  %45 = load i32, ptr %44, align 4
  %46 = call ptr @proto_tree_add_item(ptr noundef %41, i32 noundef %42, ptr noundef %43, i32 noundef %45, i32 noundef 4, i32 noundef -2147483648)
  %47 = load ptr, ptr %6, align 8
  %48 = load i32, ptr %47, align 4
  %49 = add i32 %48, 4
  store i32 %49, ptr %47, align 4
  br label %74

50:                                               ; preds = %36
  %51 = load i8, ptr %8, align 1
  %52 = zext i8 %51 to i32
  %53 = icmp eq i32 %52, 2
  br i1 %53, label %54, label %73

54:                                               ; preds = %50
  %55 = load ptr, ptr %4, align 8
  %56 = load i32, ptr @hf_zbee_gp_ieee, align 4
  %57 = load ptr, ptr %5, align 8
  %58 = load ptr, ptr %6, align 8
  %59 = load i32, ptr %58, align 4
  %60 = call ptr @proto_tree_add_item(ptr noundef %55, i32 noundef %56, ptr noundef %57, i32 noundef %59, i32 noundef 8, i32 noundef -2147483648)
  %61 = load ptr, ptr %6, align 8
  %62 = load i32, ptr %61, align 4
  %63 = add i32 %62, 8
  store i32 %63, ptr %61, align 4
  %64 = load ptr, ptr %4, align 8
  %65 = load i32, ptr @hf_zbee_gp_endpoint, align 4
  %66 = load ptr, ptr %5, align 8
  %67 = load ptr, ptr %6, align 8
  %68 = load i32, ptr %67, align 4
  %69 = call ptr @proto_tree_add_item(ptr noundef %64, i32 noundef %65, ptr noundef %66, i32 noundef %68, i32 noundef 1, i32 noundef 0)
  %70 = load ptr, ptr %6, align 8
  %71 = load i32, ptr %70, align 4
  %72 = add i32 %71, 1
  store i32 %72, ptr %70, align 4
  br label %73

73:                                               ; preds = %54, %50
  br label %74

74:                                               ; preds = %73, %40
  br label %90

75:                                               ; preds = %3
  %76 = load i8, ptr %9, align 1
  %77 = zext i8 %76 to i32
  %78 = icmp eq i32 %77, 1
  br i1 %78, label %79, label %89

79:                                               ; preds = %75
  %80 = load ptr, ptr %4, align 8
  %81 = load i32, ptr @hf_zbee_zcl_proxy_sink_tbl_req_index, align 4
  %82 = load ptr, ptr %5, align 8
  %83 = load ptr, ptr %6, align 8
  %84 = load i32, ptr %83, align 4
  %85 = call ptr @proto_tree_add_item(ptr noundef %80, i32 noundef %81, ptr noundef %82, i32 noundef %84, i32 noundef 1, i32 noundef 0)
  %86 = load ptr, ptr %6, align 8
  %87 = load i32, ptr %86, align 4
  %88 = add i32 %87, 1
  store i32 %88, ptr %86, align 4
  br label %89

89:                                               ; preds = %79, %75
  br label %90

90:                                               ; preds = %89, %74
  call void @llvm.lifetime.end.p0(i64 1, ptr %9) #7
  call void @llvm.lifetime.end.p0(i64 1, ptr %8) #7
  call void @llvm.lifetime.end.p0(i64 1, ptr %7) #7
  ret void
}