; Function Attrs: null_pointer_is_valid sspstrong uwtable
define internal fastcc void @dissect_zcl_gp_proxy_sink_table_request(ptr noundef %0, ptr noundef %1, ptr noundef captures(none) %2) unnamed_addr #0 {
  %4 = load i32, ptr %2, align 4
  %5 = tail call zeroext i8 @tvb_get_uint8(ptr noundef %1, i32 noundef %4)
  %6 = load i32, ptr %2, align 4
  %7 = load i32, ptr @hf_zbee_zcl_proxy_sink_tbl_req_options, align 4
  %8 = load i32, ptr @ett_zbee_zcl_proxy_sink_tbl_req_options, align 4
  %9 = tail call ptr @proto_tree_add_bitmask(ptr noundef %0, ptr noundef %1, i32 noundef %6, i32 noundef %7, i32 noundef %8, ptr noundef nonnull @dissect_zcl_gp_proxy_sink_table_request.n_options, i32 noundef 0)
  %10 = load i32, ptr %2, align 4
  %11 = add i32 %10, 1
  store i32 %11, ptr %2, align 4
  %12 = lshr i8 %5, 3
  %13 = and i8 %12, 3
  switch i8 %13, label %31 [
    i8 0, label %14
    i8 1, label %26
  ]

14:                                               ; preds = %3
  %15 = and i8 %5, 7
  switch i8 %15, label %31 [
    i8 0, label %16
    i8 2, label %19
  ]

16:                                               ; preds = %14
  %17 = load i32, ptr @hf_zbee_gp_src_id, align 4
  %18 = tail call ptr @proto_tree_add_item(ptr noundef %0, i32 noundef %17, ptr noundef %1, i32 noundef %11, i32 noundef 4, i32 noundef -2147483648)
  br label %.sink.split

19:                                               ; preds = %14
  %20 = load i32, ptr @hf_zbee_gp_ieee, align 4
  %21 = tail call ptr @proto_tree_add_item(ptr noundef %0, i32 noundef %20, ptr noundef %1, i32 noundef %11, i32 noundef 8, i32 noundef -2147483648)
  %22 = load i32, ptr %2, align 4
  %23 = add i32 %22, 8
  store i32 %23, ptr %2, align 4
  %24 = load i32, ptr @hf_zbee_gp_endpoint, align 4
  %25 = tail call ptr @proto_tree_add_item(ptr noundef %0, i32 noundef %24, ptr noundef %1, i32 noundef %23, i32 noundef 1, i32 noundef 0)
  br label %.sink.split

26:                                               ; preds = %3
  %27 = load i32, ptr @hf_zbee_zcl_proxy_sink_tbl_req_index, align 4
  %28 = tail call ptr @proto_tree_add_item(ptr noundef %0, i32 noundef %27, ptr noundef %1, i32 noundef %11, i32 noundef 1, i32 noundef 0)
  br label %.sink.split

.sink.split:                                      ; preds = %19, %16, %26
  %.sink29 = phi i32 [ 1, %26 ], [ 4, %16 ], [ 1, %19 ]
  %29 = load i32, ptr %2, align 4
  %30 = add i32 %29, %.sink29
  store i32 %30, ptr %2, align 4
  br label %31

31:                                               ; preds = %.sink.split, %3, %14
  ret void
}